target datalayout = "e-m:e-p270:32:32-p271:32:32-p272:64:64-i64:64-i128:128-f80:128-n8:16:32:64-S128"
target triple = "x86_64-pc-linux-gnu"

%"class.llvm::sys::fs::file_status" = type { %"class.llvm::sys::fs::basic_file_status", i64, i64, i64 }
%"class.llvm::sys::fs::basic_file_status" = type { i64, i64, i32, i32, i32, i32, i64, i32, i32 }
%"class.llvm::sys::fs::UniqueID" = type { i64, i64 }

; Function Attrs: mustprogress nounwind uwtable
define linkonce_odr hidden void @_ZN4llvm3sys2fs8UniqueIDC2Emm(ptr noundef nonnull align 8 dereferenceable(16) %0, i64 noundef %1, i64 noundef %2) unnamed_addr #0 comdat align 2 {
  %4 = alloca ptr, align 8
  %5 = alloca i64, align 8
  %6 = alloca i64, align 8
  store ptr %0, ptr %4, align 8
  store i64 %1, ptr %5, align 8
  store i64 %2, ptr %6, align 8
  %7 = load ptr, ptr %4, align 8
  %8 = getelementptr inbounds nuw %"class.llvm::sys::fs::UniqueID", ptr %7, i32 0, i32 0
  %9 = load i64, ptr %5, align 8
  store i64 %9, ptr %8, align 8
  %10 = getelementptr inbounds nuw %"class.llvm::sys::fs::UniqueID", ptr %7, i32 0, i32 1
  %11 = load i64, ptr %6, align 8
  store i64 %11, ptr %10, align 8
  ret void
}

; Function Attrs: mustprogress nounwind uwtable
define dso_local { i64, i64 } @_ZNK4llvm3sys2fs11file_status11getUniqueIDEv(ptr noundef nonnull align 8 dereferenceable(72) %0) #0 align 2 {
  %2 = alloca %"class.llvm::sys::fs::UniqueID", align 8
  %3 = alloca ptr, align 8
  store ptr %0, ptr %3, align 8
  %4 = load ptr, ptr %3, align 8
  %5 = getelementptr inbounds nuw %"class.llvm::sys::fs::file_status", ptr %4, i32 0, i32 1
  %6 = load i64, ptr %5, align 8
  %7 = getelementptr inbounds nuw %"class.llvm::sys::fs::file_status", ptr %4, i32 0, i32 3
  %8 = load i64, ptr %7, align 8
  call void @_ZN4llvm3sys2fs8UniqueIDC2Emm(ptr noundef nonnull align 8 dereferenceable(16) %2, i64 noundef %6, i64 noundef %8)
  %9 = load { i64, i64 }, ptr %2, align 8
  ret { i64, i64 } %9
}