; Function Attrs: mustprogress nofree norecurse nosync nounwind willreturn memory(argmem: read) uwtable
define dso_local { i64, i64 } @_ZNK4llvm3sys2fs11file_status11getUniqueIDEv(ptr nocapture noundef nonnull readonly align 8 dereferenceable(72) %0) local_unnamed_addr #6 align 2 {
  %2 = getelementptr inbounds nuw i8, ptr %0, i64 48
  %3 = load i64, ptr %2, align 8
  %4 = getelementptr inbounds nuw i8, ptr %0, i64 64
  %5 = load i64, ptr %4, align 8
  %.fca.0.insert = insertvalue { i64, i64 } poison, i64 %3, 0
  %.fca.1.insert = insertvalue { i64, i64 } %.fca.0.insert, i64 %5, 1
  ret { i64, i64 } %.fca.1.insert
}